target datalayout = "e-m:e-p270:32:32-p271:32:32-p272:64:64-i64:64-i128:128-f80:128-n8:16:32:64-S128"
target triple = "x86_64-pc-linux-gnu"

%"class.net::TcpCubicSenderBytes" = type { %"class.net::TcpCubicSenderBase.base", %"class.net::CubicBytes", i64, i64, i64, i64, i64, i64, i64, i64 }
%"class.net::TcpCubicSenderBase.base" = type <{ %"class.net::SendAlgorithmInterface", %"class.net::HybridSlowStart", %"class.net::PrrSender", ptr, ptr, i8, [3 x i8], i32, i64, i64, i64, i8, i8, i8, i8, i8 }>
%"class.net::SendAlgorithmInterface" = type { ptr }
%"class.net::HybridSlowStart" = type { i8, i32, i64, i64, i32, %"class.net::QuicTime::Delta" }
%"class.net::QuicTime::Delta" = type { %"class.base::TimeDelta", i64 }
%"class.base::TimeDelta" = type { i64 }
%"class.net::PrrSender" = type { i64, i64, i64, i64 }
%"class.net::CubicBytes" = type { ptr, i32, %"class.net::QuicTime", %"class.net::QuicTime", i64, i64, i64, i64, i64, i32, i64 }
%"class.net::QuicTime" = type { i64 }

; Function Attrs: mustprogress uwtable
define void @_ZN3net19TcpCubicSenderBytes21OnConnectionMigrationEv(ptr noundef nonnull align 8 dereferenceable(296) %0) unnamed_addr #0 align 2 {
  %2 = alloca ptr, align 8
  store ptr %0, ptr %2, align 8, !tbaa !3
  %3 = load ptr, ptr %2, align 8
  call void @_ZN3net18TcpCubicSenderBase21OnConnectionMigrationEv(ptr noundef nonnull align 8 dereferenceable(141) %3)
  %4 = getelementptr inbounds nuw %"class.net::TcpCubicSenderBytes", ptr %3, i32 0, i32 1
  call void @_ZN3net10CubicBytes5ResetEv(ptr noundef nonnull align 8 dereferenceable(88) %4)
  %5 = getelementptr inbounds nuw %"class.net::TcpCubicSenderBytes", ptr %3, i32 0, i32 2
  store i64 0, ptr %5, align 8, !tbaa !22
  %6 = getelementptr inbounds nuw %"class.net::TcpCubicSenderBytes", ptr %3, i32 0, i32 7
  %7 = load i64, ptr %6, align 8, !tbaa !38
  %8 = getelementptr inbounds nuw %"class.net::TcpCubicSenderBytes", ptr %3, i32 0, i32 3
  store i64 %7, ptr %8, align 8, !tbaa !34
  %9 = getelementptr inbounds nuw %"class.net::TcpCubicSenderBytes", ptr %3, i32 0, i32 8
  %10 = load i64, ptr %9, align 8, !tbaa !39
  %11 = getelementptr inbounds nuw %"class.net::TcpCubicSenderBytes", ptr %3, i32 0, i32 5
  store i64 %10, ptr %11, align 8, !tbaa !36
  %12 = getelementptr inbounds nuw %"class.net::TcpCubicSenderBytes", ptr %3, i32 0, i32 8
  %13 = load i64, ptr %12, align 8, !tbaa !39
  %14 = getelementptr inbounds nuw %"class.net::TcpCubicSenderBytes", ptr %3, i32 0, i32 6
  store i64 %13, ptr %14, align 8, !tbaa !37
  ret void
}