; Function Attrs: mustprogress uwtable
define void @_ZN3net19TcpCubicSenderBytes21OnConnectionMigrationEv(ptr noundef nonnull align 8 dereferenceable(296) %0) unnamed_addr #0 align 2 {
  tail call void @_ZN3net18TcpCubicSenderBase21OnConnectionMigrationEv(ptr noundef nonnull align 8 dereferenceable(141) %0)
  %2 = getelementptr inbounds nuw i8, ptr %0, i64 144
  tail call void @_ZN3net10CubicBytes5ResetEv(ptr noundef nonnull align 8 dereferenceable(88) %2)
  %3 = getelementptr inbounds nuw i8, ptr %0, i64 232
  store i64 0, ptr %3, align 8, !tbaa !6
  %4 = getelementptr inbounds nuw i8, ptr %0, i64 272
  %5 = load i64, ptr %4, align 8, !tbaa !29
  %6 = getelementptr inbounds nuw i8, ptr %0, i64 240
  store i64 %5, ptr %6, align 8, !tbaa !25
  %7 = getelementptr inbounds nuw i8, ptr %0, i64 280
  %8 = load i64, ptr %7, align 8, !tbaa !30
  %9 = getelementptr inbounds nuw i8, ptr %0, i64 256
  store i64 %8, ptr %9, align 8, !tbaa !27
  %10 = getelementptr inbounds nuw i8, ptr %0, i64 264
  store i64 %8, ptr %10, align 8, !tbaa !28
  ret void
}